target datalayout = "e-m:e-p270:32:32-p271:32:32-p272:64:64-i64:64-i128:128-f80:128-n8:16:32:64-S128"
target triple = "x86_64-pc-linux-gnu"

%"class.std::vector" = type { %"struct.std::_Vector_base" }
%"struct.std::_Vector_base" = type { %"struct.std::_Vector_base<std::pair<nanobind::tuple, nanobind::object>, std::allocator<std::pair<nanobind::tuple, nanobind::object>>>::_Vector_impl" }
%"struct.std::_Vector_base<std::pair<nanobind::tuple, nanobind::object>, std::allocator<std::pair<nanobind::tuple, nanobind::object>>>::_Vector_impl" = type { %"struct.std::_Vector_base<std::pair<nanobind::tuple, nanobind::object>, std::allocator<std::pair<nanobind::tuple, nanobind::object>>>::_Vector_impl_data" }
%"struct.std::_Vector_base<std::pair<nanobind::tuple, nanobind::object>, std::allocator<std::pair<nanobind::tuple, nanobind::object>>>::_Vector_impl_data" = type { ptr, ptr, ptr }
%"class.nanobind::handle" = type { ptr }
%class.anon.713 = type { i8 }

@_ZN14example_policy5callsE = linkonce_odr hidden global %"class.std::vector" zeroinitializer, comdat, align 8

; Function Attrs: mustprogress nounwind optsize uwtable
define linkonce_odr hidden void @_ZNSt15__new_allocatorISt4pairIN8nanobind5tupleENS1_6objectEEEC2ERKS5_(ptr noundef nonnull align 1 dereferenceable(1) %0, ptr noundef nonnull align 1 dereferenceable(1) %1) unnamed_addr #2 comdat align 2 {
  %3 = alloca ptr, align 8
  %4 = alloca ptr, align 8
  store ptr %0, ptr %3, align 8, !tbaa !51
  store ptr %1, ptr %4, align 8, !tbaa !51
  ret void
}

; Function Attrs: mustprogress nounwind optsize uwtable
define linkonce_odr hidden void @_ZNSt12_Vector_baseISt4pairIN8nanobind5tupleENS1_6objectEESaIS4_EE17_Vector_impl_dataC2EOS7_(ptr noundef nonnull align 8 dereferenceable(24) %0, ptr noundef nonnull align 8 dereferenceable(24) %1) unnamed_addr #2 comdat align 2 {
  %3 = alloca ptr, align 8
  %4 = alloca ptr, align 8
  store ptr %0, ptr %3, align 8, !tbaa !48
  store ptr %1, ptr %4, align 8, !tbaa !48
  %5 = load ptr, ptr %3, align 8
  %6 = getelementptr inbounds nuw %"struct.std::_Vector_base<std::pair<nanobind::tuple, nanobind::object>, std::allocator<std::pair<nanobind::tuple, nanobind::object>>>::_Vector_impl_data", ptr %5, i32 0, i32 0
  %7 = load ptr, ptr %4, align 8, !tbaa !48
  %8 = getelementptr inbounds nuw %"struct.std::_Vector_base<std::pair<nanobind::tuple, nanobind::object>, std::allocator<std::pair<nanobind::tuple, nanobind::object>>>::_Vector_impl_data", ptr %7, i32 0, i32 0
  %9 = load ptr, ptr %8, align 8, !tbaa !8
  store ptr %9, ptr %6, align 8, !tbaa !8
  %10 = getelementptr inbounds nuw %"struct.std::_Vector_base<std::pair<nanobind::tuple, nanobind::object>, std::allocator<std::pair<nanobind::tuple, nanobind::object>>>::_Vector_impl_data", ptr %5, i32 0, i32 1
  %11 = load ptr, ptr %4, align 8, !tbaa !48
  %12 = getelementptr inbounds nuw %"struct.std::_Vector_base<std::pair<nanobind::tuple, nanobind::object>, std::allocator<std::pair<nanobind::tuple, nanobind::object>>>::_Vector_impl_data", ptr %11, i32 0, i32 1
  %13 = load ptr, ptr %12, align 8, !tbaa !11
  store ptr %13, ptr %10, align 8, !tbaa !11
  %14 = getelementptr inbounds nuw %"struct.std::_Vector_base<std::pair<nanobind::tuple, nanobind::object>, std::allocator<std::pair<nanobind::tuple, nanobind::object>>>::_Vector_impl_data", ptr %5, i32 0, i32 2
  %15 = load ptr, ptr %4, align 8, !tbaa !48
  %16 = getelementptr inbounds nuw %"struct.std::_Vector_base<std::pair<nanobind::tuple, nanobind::object>, std::allocator<std::pair<nanobind::tuple, nanobind::object>>>::_Vector_impl_data", ptr %15, i32 0, i32 2
  %17 = load ptr, ptr %16, align 8, !tbaa !50
  store ptr %17, ptr %14, align 8, !tbaa !50
  %18 = load ptr, ptr %4, align 8, !tbaa !48
  %19 = getelementptr inbounds nuw %"struct.std::_Vector_base<std::pair<nanobind::tuple, nanobind::object>, std::allocator<std::pair<nanobind::tuple, nanobind::object>>>::_Vector_impl_data", ptr %18, i32 0, i32 2
  store ptr null, ptr %19, align 8, !tbaa !50
  %20 = load ptr, ptr %4, align 8, !tbaa !48
  %21 = getelementptr inbounds nuw %"struct.std::_Vector_base<std::pair<nanobind::tuple, nanobind::object>, std::allocator<std::pair<nanobind::tuple, nanobind::object>>>::_Vector_impl_data", ptr %20, i32 0, i32 1
  store ptr null, ptr %21, align 8, !tbaa !11
  %22 = load ptr, ptr %4, align 8, !tbaa !48
  %23 = getelementptr inbounds nuw %"struct.std::_Vector_base<std::pair<nanobind::tuple, nanobind::object>, std::allocator<std::pair<nanobind::tuple, nanobind::object>>>::_Vector_impl_data", ptr %22, i32 0, i32 0
  store ptr null, ptr %23, align 8, !tbaa !8
  ret void
}

; Function Attrs: mustprogress nounwind optsize uwtable
define linkonce_odr hidden void @_ZNSaISt4pairIN8nanobind5tupleENS0_6objectEEEC2ERKS4_(ptr noundef nonnull align 1 dereferenceable(1) %0, ptr noundef nonnull align 1 dereferenceable(1) %1) unnamed_addr #2 comdat align 2 {
  %3 = alloca ptr, align 8
  %4 = alloca ptr, align 8
  store ptr %0, ptr %3, align 8, !tbaa !46
  store ptr %1, ptr %4, align 8, !tbaa !46
  %5 = load ptr, ptr %3, align 8
  %6 = load ptr, ptr %4, align 8, !tbaa !46
  call void @_ZNSt15__new_allocatorISt4pairIN8nanobind5tupleENS1_6objectEEEC2ERKS5_(ptr noundef nonnull align 1 dereferenceable(1) %5, ptr noundef nonnull align 1 dereferenceable(1) %6) #20
  ret void
}

; Function Attrs: mustprogress nounwind optsize uwtable
define linkonce_odr hidden void @_ZNSt12_Vector_baseISt4pairIN8nanobind5tupleENS1_6objectEESaIS4_EE12_Vector_implC2EOS7_(ptr noundef nonnull align 8 dereferenceable(24) %0, ptr noundef nonnull align 8 dereferenceable(24) %1) unnamed_addr #2 comdat align 2 {
  %3 = alloca ptr, align 8
  %4 = alloca ptr, align 8
  store ptr %0, ptr %3, align 8, !tbaa !44
  store ptr %1, ptr %4, align 8, !tbaa !44
  %5 = load ptr, ptr %3, align 8
  %6 = load ptr, ptr %4, align 8, !tbaa !44
  call void @_ZNSaISt4pairIN8nanobind5tupleENS0_6objectEEEC2ERKS4_(ptr noundef nonnull align 1 dereferenceable(1) %5, ptr noundef nonnull align 1 dereferenceable(1) %6) #20
  %7 = load ptr, ptr %4, align 8, !tbaa !44
  call void @_ZNSt12_Vector_baseISt4pairIN8nanobind5tupleENS1_6objectEESaIS4_EE17_Vector_impl_dataC2EOS7_(ptr noundef nonnull align 8 dereferenceable(24) %5, ptr noundef nonnull align 8 dereferenceable(24) %7) #20
  ret void
}

; Function Attrs: mustprogress nounwind optsize uwtable
define linkonce_odr hidden void @_ZNSt12_Vector_baseISt4pairIN8nanobind5tupleENS1_6objectEESaIS4_EEC2EOS6_(ptr noundef nonnull align 8 dereferenceable(24) %0, ptr noundef nonnull align 8 dereferenceable(24) %1) unnamed_addr #2 comdat align 2 {
  %3 = alloca ptr, align 8
  %4 = alloca ptr, align 8
  store ptr %0, ptr %3, align 8, !tbaa !42
  store ptr %1, ptr %4, align 8, !tbaa !42
  %5 = load ptr, ptr %3, align 8
  %6 = getelementptr inbounds nuw %"struct.std::_Vector_base", ptr %5, i32 0, i32 0
  %7 = load ptr, ptr %4, align 8, !tbaa !42
  %8 = getelementptr inbounds nuw %"struct.std::_Vector_base", ptr %7, i32 0, i32 0
  call void @_ZNSt12_Vector_baseISt4pairIN8nanobind5tupleENS1_6objectEESaIS4_EE12_Vector_implC2EOS7_(ptr noundef nonnull align 8 dereferenceable(24) %6, ptr noundef nonnull align 8 dereferenceable(24) %8) #20
  ret void
}

; Function Attrs: mustprogress nounwind optsize uwtable
define linkonce_odr hidden void @_ZNSt6vectorISt4pairIN8nanobind5tupleENS1_6objectEESaIS4_EEC2EOS6_(ptr noundef nonnull align 8 dereferenceable(24) %0, ptr noundef nonnull align 8 dereferenceable(24) %1) unnamed_addr #2 comdat align 2 {
  %3 = alloca ptr, align 8
  %4 = alloca ptr, align 8
  store ptr %0, ptr %3, align 8, !tbaa !3
  store ptr %1, ptr %4, align 8, !tbaa !3
  %5 = load ptr, ptr %3, align 8
  %6 = load ptr, ptr %4, align 8, !tbaa !3
  call void @_ZNSt12_Vector_baseISt4pairIN8nanobind5tupleENS1_6objectEESaIS4_EEC2EOS6_(ptr noundef nonnull align 8 dereferenceable(24) %5, ptr noundef nonnull align 8 dereferenceable(24) %6) #20
  ret void
}

; Function Attrs: alwaysinline mustprogress nounwind optsize uwtable
define linkonce_odr hidden noundef ptr @_ZNK8nanobind6handle3ptrEv(ptr noundef nonnull align 8 dereferenceable(8) %0) #8 comdat align 2 {
  %2 = alloca ptr, align 8
  store ptr %0, ptr %2, align 8, !tbaa !20
  %3 = load ptr, ptr %2, align 8
  %4 = getelementptr inbounds nuw %"class.nanobind::handle", ptr %3, i32 0, i32 0
  %5 = load ptr, ptr %4, align 8, !tbaa !22
  ret ptr %5
}

; Function Attrs: inlinehint mustprogress nounwind optsize uwtable
define internal void @"_ZZL32nanobind_init_test_functions_extRN8nanobind7module_EENK5$_102clEv"(ptr dead_on_unwind noalias writable sret(%"class.std::vector") align 8 %0, ptr noundef nonnull align 1 dereferenceable(1) %1) #12 align 2 {
  %3 = alloca ptr, align 8
  %4 = alloca ptr, align 8
  %5 = alloca i1, align 1
  store ptr %0, ptr %3, align 8
  store ptr %1, ptr %4, align 8, !tbaa !26
  store i1 false, ptr %5, align 1
  call void @_ZNSt6vectorISt4pairIN8nanobind5tupleENS1_6objectEESaIS4_EEC2EOS6_(ptr noundef nonnull align 8 dereferenceable(24) %0, ptr noundef nonnull align 8 dereferenceable(24) @_ZN14example_policy5callsE) #20
  store i1 true, ptr %5, align 1
  %6 = load i1, ptr %5, align 1
  br i1 %6, label %8, label %7

7:                                                ; preds = %2
  call void @_ZNSt6vectorISt4pairIN8nanobind5tupleENS1_6objectEESaIS4_EED2Ev(ptr noundef nonnull align 8 dereferenceable(24) %0) #20
  br label %8

8:                                                ; preds = %7, %2
  ret void
}

; Function Attrs: alwaysinline mustprogress optsize uwtable
define internal noundef ptr @"_ZZN8nanobind6detail11func_createILb0ELb1EZL32nanobind_init_test_functions_extRNS_7module_EE5$_102St6vectorISt4pairINS_5tupleENS_6objectEESaIS9_EEJETpTnmJEJNS_5scopeENS_4nameEEEEP7_objectOT1_PFT2_DpT3_ESt16integer_sequenceImJXspT4_EEEDpRKT5_ENKUlPvPSF_PhNS_9rv_policyEPNS0_12cleanup_listEE_clEST_SU_SV_SW_SY_"(ptr noundef nonnull align 1 dereferenceable(1) %0, ptr noundef %1, ptr noundef %2, ptr noundef %3, i32 noundef %4, ptr noundef %5) #6 align 2 personality ptr @__gxx_personality_v0 {
  %7 = alloca ptr, align 8
  %8 = alloca ptr, align 8
  %9 = alloca ptr, align 8
  %10 = alloca ptr, align 8
  %11 = alloca i32, align 4
  %12 = alloca ptr, align 8
  %13 = alloca ptr, align 8
  %14 = alloca ptr, align 8
  %15 = alloca %"class.nanobind::handle", align 8
  %16 = alloca %"class.std::vector", align 8
  %17 = alloca ptr, align 8
  %18 = alloca i32, align 4
  store ptr %0, ptr %7, align 8, !tbaa !26
  store ptr %1, ptr %8, align 8, !tbaa !26
  store ptr %2, ptr %9, align 8, !tbaa !146
  store ptr %3, ptr %10, align 8, !tbaa !57
  store i32 %4, ptr %11, align 4, !tbaa !113
  store ptr %5, ptr %12, align 8, !tbaa !115
  call void @llvm.lifetime.start.p0(i64 8, ptr %13) #1
  %19 = load ptr, ptr %8, align 8, !tbaa !26
  store ptr %19, ptr %13, align 8, !tbaa !925
  call void @llvm.lifetime.start.p0(i64 8, ptr %14) #1
  call void @llvm.lifetime.start.p0(i64 8, ptr %15) #1
  call void @llvm.lifetime.start.p0(i64 24, ptr %16) #1
  %20 = load ptr, ptr %13, align 8, !tbaa !925
  call void @"_ZZL32nanobind_init_test_functions_extRN8nanobind7module_EENK5$_102clEv"(ptr dead_on_unwind writable sret(%"class.std::vector") align 8 %16, ptr noundef nonnull align 1 dereferenceable(1) %20) #21
  %21 = load i32, ptr %11, align 4, !tbaa !113
  %22 = load ptr, ptr %12, align 8, !tbaa !115
  %23 = invoke ptr @_ZN8nanobind6detail11list_casterISt6vectorISt4pairINS_5tupleENS_6objectEESaIS6_EES6_E8from_cppIS8_EENS_6handleEOT_NS_9rv_policyEPNS0_12cleanup_listE(ptr noundef nonnull align 8 dereferenceable(24) %16, i32 noundef %21, ptr noundef %22) #21
          to label %24 unwind label %28

24:                                               ; preds = %6
  %25 = getelementptr inbounds nuw %"class.nanobind::handle", ptr %15, i32 0, i32 0
  store ptr %23, ptr %25, align 8
  %26 = call noundef ptr @_ZNK8nanobind6handle3ptrEv(ptr noundef nonnull align 8 dereferenceable(8) %15) #21
  store ptr %26, ptr %14, align 8, !tbaa !14
  call void @_ZNSt6vectorISt4pairIN8nanobind5tupleENS1_6objectEESaIS4_EED2Ev(ptr noundef nonnull align 8 dereferenceable(24) %16) #20
  call void @llvm.lifetime.end.p0(i64 24, ptr %16) #1
  call void @llvm.lifetime.end.p0(i64 8, ptr %15) #1
  %27 = load ptr, ptr %14, align 8, !tbaa !14
  call void @llvm.lifetime.end.p0(i64 8, ptr %14) #1
  call void @llvm.lifetime.end.p0(i64 8, ptr %13) #1
  ret ptr %27

28:                                               ; preds = %6
  %29 = landingpad { ptr, i32 }
          cleanup
  %30 = extractvalue { ptr, i32 } %29, 0
  store ptr %30, ptr %17, align 8
  %31 = extractvalue { ptr, i32 } %29, 1
  store i32 %31, ptr %18, align 4
  call void @_ZNSt6vectorISt4pairIN8nanobind5tupleENS1_6objectEESaIS4_EED2Ev(ptr noundef nonnull align 8 dereferenceable(24) %16) #20
  call void @llvm.lifetime.end.p0(i64 24, ptr %16) #1
  call void @llvm.lifetime.end.p0(i64 8, ptr %15) #1
  call void @llvm.lifetime.end.p0(i64 8, ptr %14) #1
  call void @llvm.lifetime.end.p0(i64 8, ptr %13) #1
  br label %32

32:                                               ; preds = %28
  %33 = load ptr, ptr %17, align 8
  %34 = load i32, ptr %18, align 4
  %35 = insertvalue { ptr, i32 } poison, ptr %33, 0
  %36 = insertvalue { ptr, i32 } %35, i32 %34, 1
  resume { ptr, i32 } %36
}

; Function Attrs: inlinehint mustprogress optsize uwtable
define internal noundef ptr @"_ZZN8nanobind6detail11func_createILb0ELb1EZL32nanobind_init_test_functions_extRNS_7module_EE5$_102St6vectorISt4pairINS_5tupleENS_6objectEESaIS9_EEJETpTnmJEJNS_5scopeENS_4nameEEEEP7_objectOT1_PFT2_DpT3_ESt16integer_sequenceImJXspT4_EEEDpRKT5_ENUlPvPSF_PhNS_9rv_policyEPNS0_12cleanup_listEE_8__invokeEST_SU_SV_SW_SY_"(ptr noundef %0, ptr noundef %1, ptr noundef %2, i32 noundef %3, ptr noundef %4) #11 align 2 {
  %6 = alloca ptr, align 8
  %7 = alloca ptr, align 8
  %8 = alloca ptr, align 8
  %9 = alloca i32, align 4
  %10 = alloca ptr, align 8
  %11 = alloca %class.anon.713, align 1
  store ptr %0, ptr %6, align 8, !tbaa !26
  store ptr %1, ptr %7, align 8, !tbaa !146
  store ptr %2, ptr %8, align 8, !tbaa !57
  store i32 %3, ptr %9, align 4, !tbaa !113
  store ptr %4, ptr %10, align 8, !tbaa !115
  %12 = load ptr, ptr %6, align 8, !tbaa !26
  %13 = load ptr, ptr %7, align 8, !tbaa !146
  %14 = load ptr, ptr %8, align 8, !tbaa !57
  %15 = load i32, ptr %9, align 4, !tbaa !113
  %16 = load ptr, ptr %10, align 8, !tbaa !115
  %17 = call noundef ptr @"_ZZN8nanobind6detail11func_createILb0ELb1EZL32nanobind_init_test_functions_extRNS_7module_EE5$_102St6vectorISt4pairINS_5tupleENS_6objectEESaIS9_EEJETpTnmJEJNS_5scopeENS_4nameEEEEP7_objectOT1_PFT2_DpT3_ESt16integer_sequenceImJXspT4_EEEDpRKT5_ENKUlPvPSF_PhNS_9rv_policyEPNS0_12cleanup_listEE_clEST_SU_SV_SW_SY_"(ptr noundef nonnull align 1 dereferenceable(1) %11, ptr noundef %12, ptr noundef %13, ptr noundef %14, i32 noundef %15, ptr noundef %16) #21
  ret ptr %17
}