; Function Attrs: inlinehint mustprogress optsize uwtable
define internal noundef ptr @"_ZZN8nanobind6detail11func_createILb0ELb1EZL32nanobind_init_test_functions_extRNS_7module_EE5$_102St6vectorISt4pairINS_5tupleENS_6objectEESaIS9_EEJETpTnmJEJNS_5scopeENS_4nameEEEEP7_objectOT1_PFT2_DpT3_ESt16integer_sequenceImJXspT4_EEEDpRKT5_ENUlPvPSF_PhNS_9rv_policyEPNS0_12cleanup_listEE_8__invokeEST_SU_SV_SW_SY_"(ptr readnone captures(none) %0, ptr readnone captures(none) %1, ptr readnone captures(none) %2, i32 noundef %3, ptr noundef %4) #15 align 2 personality ptr @__gxx_personality_v0 {
  %6 = alloca %"class.std::vector", align 8
  call void @llvm.lifetime.start.p0(i64 24, ptr nonnull %6) #27
  tail call void @llvm.experimental.noalias.scope.decl(metadata !448)
  %7 = load ptr, ptr @_ZN14example_policy5callsE, align 8, !tbaa !3, !noalias !448
  store ptr %7, ptr %6, align 8, !tbaa !3, !alias.scope !448
  %8 = getelementptr inbounds nuw i8, ptr %6, i64 8
  %9 = load ptr, ptr getelementptr inbounds nuw (i8, ptr @_ZN14example_policy5callsE, i64 8), align 8, !tbaa !9, !noalias !448
  store ptr %9, ptr %8, align 8, !tbaa !9, !alias.scope !448
  %10 = getelementptr inbounds nuw i8, ptr %6, i64 16
  %11 = load ptr, ptr getelementptr inbounds nuw (i8, ptr @_ZN14example_policy5callsE, i64 16), align 8, !tbaa !10, !noalias !448
  store ptr %11, ptr %10, align 8, !tbaa !10, !alias.scope !448
  tail call void @llvm.memset.p0.i64(ptr noundef nonnull align 8 dereferenceable(24) @_ZN14example_policy5callsE, i8 0, i64 24, i1 false), !noalias !448
  %12 = invoke ptr @_ZN8nanobind6detail11list_casterISt6vectorISt4pairINS_5tupleENS_6objectEESaIS6_EES6_E8from_cppIS8_EENS_6handleEOT_NS_9rv_policyEPNS0_12cleanup_listE(ptr noundef nonnull align 8 dereferenceable(24) %6, i32 noundef %3, ptr noundef %4) #28
          to label %"_ZZN8nanobind6detail11func_createILb0ELb1EZL32nanobind_init_test_functions_extRNS_7module_EE5$_102St6vectorISt4pairINS_5tupleENS_6objectEESaIS9_EEJETpTnmJEJNS_5scopeENS_4nameEEEEP7_objectOT1_PFT2_DpT3_ESt16integer_sequenceImJXspT4_EEEDpRKT5_ENKUlPvPSF_PhNS_9rv_policyEPNS0_12cleanup_listEE_clEST_SU_SV_SW_SY_.exit" unwind label %13

13:                                               ; preds = %5
  %14 = landingpad { ptr, i32 }
          cleanup
  call void @_ZNSt6vectorISt4pairIN8nanobind5tupleENS1_6objectEESaIS4_EED2Ev(ptr noundef nonnull align 8 dereferenceable(24) %6) #31
  call void @llvm.lifetime.end.p0(i64 24, ptr nonnull %6) #27
  resume { ptr, i32 } %14

"_ZZN8nanobind6detail11func_createILb0ELb1EZL32nanobind_init_test_functions_extRNS_7module_EE5$_102St6vectorISt4pairINS_5tupleENS_6objectEESaIS9_EEJETpTnmJEJNS_5scopeENS_4nameEEEEP7_objectOT1_PFT2_DpT3_ESt16integer_sequenceImJXspT4_EEEDpRKT5_ENKUlPvPSF_PhNS_9rv_policyEPNS0_12cleanup_listEE_clEST_SU_SV_SW_SY_.exit": ; preds = %5
  call void @_ZNSt6vectorISt4pairIN8nanobind5tupleENS1_6objectEESaIS4_EED2Ev(ptr noundef nonnull align 8 dereferenceable(24) %6) #31
  call void @llvm.lifetime.end.p0(i64 24, ptr nonnull %6) #27
  ret ptr %12
}